(ikeras_frcnn_lib.keras_frcnn.config
Config
p0
(dp1
S'use_vertical_flips'
p2
I00
sS'verbose'
p3
I01
sS'classifier_regr_std'
p4
(lp5
F8.0
aF8.0
aF4.0
aF4.0
asS'classifier_min_overlap'
p6
F0.1
sS'rot_90'
p7
I00
sS'class_mapping'
p8
(dp9
S'pickup_truck'
p10
I3
sS'bg'
p11
I5
sS'van'
p12
I1
sS'car'
p13
I0
sS'truck'
p14
I2
sS'bus'
p15
I4
ssS'use_horizontal_flips'
p16
I01
sS'rpn_max_overlap'
p17
F0.7
sS'network'
p18
S'resnet50'
p19
sS'img_channel_mean'
p20
(lp21
F103.939
aF116.779
aF123.68
asS'balanced_classes'
p22
I00
sS'anchor_box_ratios'
p23
(lp24
(lp25
I1
aI1
aa(lp26
I1
aI2
aa(lp27
I2
aI1
aasS'img_scaling_factor'
p28
F1.0
sS'rpn_stride'
p29
I16
sS'num_rois'
p30
I32
sS'base_net_weights'
p31
S'/home/eljefec/data/nexet/frcnn/1-hf_nosmall/model_frcnn_e347_l0.309_a0.916.hdf5'
p32
sS'anchor_box_scales'
p33
(lp34
I128
aI256
aI512
asS'rpn_min_overlap'
p35
F0.3
sS'model_path'
p36
S'keras_frcnn_lib/model_frcnn.hdf5'
p37
sS'classifier_max_overlap'
p38
F0.5
sS'std_scaling'
p39
F4.0
sS'im_size'
p40
I600
sb.
